target datalayout = "e-m:e-p270:32:32-p271:32:32-p272:64:64-i64:64-i128:128-f80:128-n8:16:32:64-S128"
target triple = "x86_64-pc-linux-gnu"

%struct.OnigMatchParamStruct = type { i32, i64, i64, ptr, ptr, ptr, i32, ptr, i32 }

@MatchStackLimit = internal global i32 0, align 4
@RetryLimitInMatch = internal global i64 10000000, align 8
@RetryLimitInSearch = internal global i64 0, align 8
@DefaultProgressCallout = internal global ptr null, align 8
@DefaultRetractionCallout = internal global ptr null, align 8

; Function Attrs: nounwind uwtable
define dso_local i32 @onig_initialize_match_param(ptr noundef %0) #0 {
  %2 = alloca ptr, align 8
  store ptr %0, ptr %2, align 8, !tbaa !4
  %3 = load i32, ptr @MatchStackLimit, align 4, !tbaa !9
  %4 = load ptr, ptr %2, align 8, !tbaa !4
  %5 = getelementptr inbounds nuw %struct.OnigMatchParamStruct, ptr %4, i32 0, i32 0
  store i32 %3, ptr %5, align 8, !tbaa !11
  %6 = load i64, ptr @RetryLimitInMatch, align 8, !tbaa !14
  %7 = load ptr, ptr %2, align 8, !tbaa !4
  %8 = getelementptr inbounds nuw %struct.OnigMatchParamStruct, ptr %7, i32 0, i32 1
  store i64 %6, ptr %8, align 8, !tbaa !15
  %9 = load i64, ptr @RetryLimitInSearch, align 8, !tbaa !14
  %10 = load ptr, ptr %2, align 8, !tbaa !4
  %11 = getelementptr inbounds nuw %struct.OnigMatchParamStruct, ptr %10, i32 0, i32 2
  store i64 %9, ptr %11, align 8, !tbaa !16
  %12 = load ptr, ptr %2, align 8, !tbaa !4
  %13 = getelementptr inbounds nuw %struct.OnigMatchParamStruct, ptr %12, i32 0, i32 3
  store ptr null, ptr %13, align 8, !tbaa !20
  %14 = load ptr, ptr @DefaultProgressCallout, align 8, !tbaa !17
  %15 = load ptr, ptr %2, align 8, !tbaa !4
  %16 = getelementptr inbounds nuw %struct.OnigMatchParamStruct, ptr %15, i32 0, i32 4
  store ptr %14, ptr %16, align 8, !tbaa !18
  %17 = load ptr, ptr @DefaultRetractionCallout, align 8, !tbaa !17
  %18 = load ptr, ptr %2, align 8, !tbaa !4
  %19 = getelementptr inbounds nuw %struct.OnigMatchParamStruct, ptr %18, i32 0, i32 5
  store ptr %17, ptr %19, align 8, !tbaa !19
  %20 = load ptr, ptr %2, align 8, !tbaa !4
  %21 = getelementptr inbounds nuw %struct.OnigMatchParamStruct, ptr %20, i32 0, i32 6
  store i32 0, ptr %21, align 8, !tbaa !42
  %22 = load ptr, ptr %2, align 8, !tbaa !4
  %23 = getelementptr inbounds nuw %struct.OnigMatchParamStruct, ptr %22, i32 0, i32 7
  store ptr null, ptr %23, align 8, !tbaa !43
  %24 = load ptr, ptr %2, align 8, !tbaa !4
  %25 = getelementptr inbounds nuw %struct.OnigMatchParamStruct, ptr %24, i32 0, i32 8
  store i32 0, ptr %25, align 8, !tbaa !44
  ret i32 0
}

; Function Attrs: nounwind uwtable
define dso_local ptr @onig_new_match_param() #0 {
  %1 = alloca ptr, align 8
  call void @llvm.lifetime.start.p0(i64 8, ptr %1) #9
  %2 = call noalias ptr @malloc(i64 noundef 72) #10
  store ptr %2, ptr %1, align 8, !tbaa !4
  %3 = load ptr, ptr %1, align 8, !tbaa !4
  %4 = icmp ne ptr %3, null
  br i1 %4, label %5, label %8

5:                                                ; preds = %0
  %6 = load ptr, ptr %1, align 8, !tbaa !4
  %7 = call i32 @onig_initialize_match_param(ptr noundef %6)
  br label %8

8:                                                ; preds = %5, %0
  %9 = load ptr, ptr %1, align 8, !tbaa !4
  call void @llvm.lifetime.end.p0(i64 8, ptr %1) #9
  ret ptr %9
}